target datalayout = "e-m:e-p270:32:32-p271:32:32-p272:64:64-i64:64-i128:128-f80:128-n8:16:32:64-S128"
target triple = "x86_64-pc-linux-gnu"

%"class.std::error_code" = type { i32, ptr }
%"class.llvm::raw_fd_ostream" = type { %"class.llvm::raw_pwrite_stream", i32, i8, i8, i8, %"class.std::optional", ptr, %"class.std::error_code", i64 }
%"class.llvm::raw_pwrite_stream" = type { %"class.llvm::raw_ostream" }
%"class.llvm::raw_ostream" = type { ptr, i32, ptr, ptr, ptr, i8, i32 }
%"class.std::optional" = type { %"struct.std::_Optional_base" }
%"struct.std::_Optional_base" = type { %"struct.std::_Optional_payload" }
%"struct.std::_Optional_payload" = type { %"struct.std::_Optional_payload_base" }
%"struct.std::_Optional_payload_base" = type { %"union.std::_Optional_payload_base<bool>::_Storage", i8 }
%"union.std::_Optional_payload_base<bool>::_Storage" = type { %"struct.std::_Optional_payload_base<bool>::_Empty_byte" }
%"struct.std::_Optional_payload_base<bool>::_Empty_byte" = type { i8 }

; Function Attrs: mustprogress nounwind uwtable
define linkonce_odr hidden noundef ptr @_ZN4llvm6unwrapEP16LLVMOpaqueModule(ptr noundef %0) #0 comdat {
  %2 = alloca ptr, align 8
  store ptr %0, ptr %2, align 8
  %3 = load ptr, ptr %2, align 8
  ret ptr %3
}

; Function Attrs: mustprogress nounwind uwtable
define dso_local i32 @LLVMWriteBitcodeToFD(ptr noundef %0, i32 noundef %1, i32 noundef %2, i32 noundef %3) #0 {
  %5 = alloca ptr, align 8
  %6 = alloca i32, align 4
  %7 = alloca i32, align 4
  %8 = alloca i32, align 4
  %9 = alloca %"class.llvm::raw_fd_ostream", align 8
  store ptr %0, ptr %5, align 8
  store i32 %1, ptr %6, align 4
  store i32 %2, ptr %7, align 4
  store i32 %3, ptr %8, align 4
  %10 = load i32, ptr %6, align 4
  %11 = load i32, ptr %7, align 4
  %12 = icmp ne i32 %11, 0
  %13 = load i32, ptr %8, align 4
  %14 = icmp ne i32 %13, 0
  call void @_ZN4llvm14raw_fd_ostreamC1EibbNS_11raw_ostream11OStreamKindE(ptr noundef nonnull align 8 dereferenceable(96) %9, i32 noundef %10, i1 noundef zeroext %12, i1 noundef zeroext %14, i32 noundef 0)
  %15 = load ptr, ptr %5, align 8
  %16 = call noundef ptr @_ZN4llvm6unwrapEP16LLVMOpaqueModule(ptr noundef %15)
  call void @_ZN4llvm18WriteBitcodeToFileERKNS_6ModuleERNS_11raw_ostreamEbPKNS_18ModuleSummaryIndexEbPSt5arrayIjLm5EE(ptr noundef nonnull align 8 dereferenceable(857) %16, ptr noundef nonnull align 8 dereferenceable(48) %9, i1 noundef zeroext false, ptr noundef null, i1 noundef zeroext false, ptr noundef null)
  call void @_ZN4llvm14raw_fd_ostreamD1Ev(ptr noundef nonnull align 8 dereferenceable(96) %9) #4
  ret i32 0
}

; Function Attrs: mustprogress nounwind uwtable
define dso_local i32 @LLVMWriteBitcodeToFileHandle(ptr noundef %0, i32 noundef %1) #0 {
  %3 = alloca ptr, align 8
  %4 = alloca i32, align 4
  store ptr %0, ptr %3, align 8
  store i32 %1, ptr %4, align 4
  %5 = load ptr, ptr %3, align 8
  %6 = load i32, ptr %4, align 4
  %7 = call i32 @LLVMWriteBitcodeToFD(ptr noundef %5, i32 noundef %6, i32 noundef 1, i32 noundef 0)
  ret i32 %7
}