; Function Attrs: mustprogress nounwind uwtable
define dso_local noundef i32 @LLVMWriteBitcodeToFileHandle(ptr noundef %0, i32 noundef %1) local_unnamed_addr #0 {
  %3 = alloca %"class.llvm::raw_fd_ostream", align 8
  call void @llvm.lifetime.start.p0(i64 96, ptr nonnull %3)
  call void @_ZN4llvm14raw_fd_ostreamC1EibbNS_11raw_ostream11OStreamKindE(ptr noundef nonnull align 8 dereferenceable(96) %3, i32 noundef %1, i1 noundef zeroext true, i1 noundef zeroext false, i32 noundef 0) #8
  call void @_ZN4llvm18WriteBitcodeToFileERKNS_6ModuleERNS_11raw_ostreamEbPKNS_18ModuleSummaryIndexEbPSt5arrayIjLm5EE(ptr noundef nonnull align 8 dereferenceable(857) %0, ptr noundef nonnull align 8 dereferenceable(48) %3, i1 noundef zeroext false, ptr noundef null, i1 noundef zeroext false, ptr noundef null) #8
  call void @_ZN4llvm14raw_fd_ostreamD1Ev(ptr noundef nonnull align 8 dereferenceable(96) %3) #8
  call void @llvm.lifetime.end.p0(i64 96, ptr nonnull %3)
  ret i32 0
}